target datalayout = "e-m:e-p270:32:32-p271:32:32-p272:64:64-i64:64-i128:128-f80:128-n8:16:32:64-S128"
target triple = "x86_64-pc-linux-gnu"

@.str.5 = private unnamed_addr constant [16 x i8] c"idbutton-%d.svg\00", align 1
@.str.6 = private unnamed_addr constant [13 x i8] c"idbutton.svg\00", align 1

; Function Attrs: nounwind uwtable
define ptr @dt_util_get_logo(float noundef %0) #0 {
  %2 = alloca float, align 4
  %3 = alloca ptr, align 8
  %4 = alloca i32, align 4
  store float %0, ptr %2, align 4, !tbaa !45
  call void @llvm.lifetime.start.p0(i64 8, ptr %3) #18
  call void @llvm.lifetime.start.p0(i64 4, ptr %4) #18
  %5 = call i32 @dt_util_get_logo_season()
  store i32 %5, ptr %4, align 4, !tbaa !15
  %6 = load i32, ptr %4, align 4, !tbaa !15
  %7 = icmp ne i32 %6, 0
  br i1 %7, label %8, label %11

8:                                                ; preds = %1
  %9 = load i32, ptr %4, align 4, !tbaa !15
  %10 = call noalias ptr (ptr, ...) @g_strdup_printf(ptr noundef @.str.5, i32 noundef %9)
  store ptr %10, ptr %3, align 8, !tbaa !6
  br label %13

11:                                               ; preds = %1
  %12 = call noalias ptr @g_strdup(ptr noundef @.str.6)
  store ptr %12, ptr %3, align 8, !tbaa !6
  br label %13

13:                                               ; preds = %11, %8
  %14 = load ptr, ptr %3, align 8, !tbaa !6
  %15 = load float, ptr %2, align 4, !tbaa !45
  %16 = call ptr @_util_get_svg_img(ptr noundef %14, float noundef %15)
  call void @llvm.lifetime.end.p0(i64 4, ptr %4) #18
  call void @llvm.lifetime.end.p0(i64 8, ptr %3) #18
  ret ptr %16
}