; Function Attrs: nounwind uwtable
define ptr @dt_util_get_logo(float noundef %0) local_unnamed_addr #0 {
  %2 = tail call i32 @dt_util_get_logo_season()
  %.not = icmp eq i32 %2, 0
  br i1 %.not, label %5, label %3

3:                                                ; preds = %1
  %4 = tail call noalias ptr (ptr, ...) @g_strdup_printf(ptr noundef nonnull @.str.5, i32 noundef %2) #27
  br label %7

5:                                                ; preds = %1
  %6 = tail call noalias ptr @g_strdup(ptr noundef nonnull @.str.6) #27
  br label %7

7:                                                ; preds = %5, %3
  %.0 = phi ptr [ %4, %3 ], [ %6, %5 ]
  %8 = tail call fastcc ptr @_util_get_svg_img(ptr noundef %.0, float noundef %0)
  ret ptr %8
}